target datalayout = "e-m:e-p270:32:32-p271:32:32-p272:64:64-i64:64-i128:128-f80:128-n8:16:32:64-S128"
target triple = "x86_64-pc-linux-gnu"

%struct.xorkey_st = type { [32 x i8], [32 x i8], i32, i32, ptr, %struct.CRYPTO_REF_COUNT }
%struct.CRYPTO_REF_COUNT = type { i32 }
%struct.asn1_string_st = type { i32, i32, ptr, i64 }

@.str.2 = private unnamed_addr constant [31 x i8] c"../openssl/test/tls-provider.c\00", align 1
@__func__.xorx_pki_priv_to_der = private unnamed_addr constant [21 x i8] c"xorx_pki_priv_to_der\00", align 1

; Function Attrs: nounwind uwtable
define internal i32 @xorx_pki_priv_to_der(ptr noundef %0, ptr noundef %1) #0 {
  %3 = alloca i32, align 4
  %4 = alloca ptr, align 8
  %5 = alloca ptr, align 8
  %6 = alloca ptr, align 8
  %7 = alloca ptr, align 8
  %8 = alloca %struct.asn1_string_st, align 8
  %9 = alloca i32, align 4
  %10 = alloca i32, align 4
  store ptr %0, ptr %4, align 8, !tbaa !13
  store ptr %1, ptr %5, align 8, !tbaa !93
  call void @llvm.lifetime.start.p0(i64 8, ptr %6) #8
  %11 = load ptr, ptr %4, align 8, !tbaa !13
  store ptr %11, ptr %6, align 8, !tbaa !41
  call void @llvm.lifetime.start.p0(i64 8, ptr %7) #8
  store ptr null, ptr %7, align 8, !tbaa !30
  call void @llvm.lifetime.start.p0(i64 24, ptr %8) #8
  call void @llvm.lifetime.start.p0(i64 4, ptr %9) #8
  %12 = load ptr, ptr %6, align 8, !tbaa !41
  %13 = icmp eq ptr %12, null
  br i1 %13, label %14, label %15

14:                                               ; preds = %2
  call void @ERR_new()
  call void @ERR_set_debug(ptr noundef @.str.2, i32 noundef 1688, ptr noundef @__func__.xorx_pki_priv_to_der)
  call void (i32, i32, ptr, ...) @ERR_set_error(i32 noundef 128, i32 noundef 786690, ptr noundef null)
  store i32 0, ptr %3, align 4
  store i32 1, ptr %10, align 4
  br label %33

15:                                               ; preds = %2
  %16 = call noalias ptr @CRYPTO_secure_malloc(i64 noundef 32, ptr noundef @.str.2, i32 noundef 1692)
  store ptr %16, ptr %7, align 8, !tbaa !30
  %17 = load ptr, ptr %7, align 8, !tbaa !30
  %18 = load ptr, ptr %6, align 8, !tbaa !41
  %19 = getelementptr inbounds nuw %struct.xorkey_st, ptr %18, i32 0, i32 0
  %20 = getelementptr inbounds [32 x i8], ptr %19, i64 0, i64 0
  call void @llvm.memcpy.p0.p0.i64(ptr align 1 %17, ptr align 8 %20, i64 32, i1 false)
  %21 = load ptr, ptr %7, align 8, !tbaa !30
  %22 = getelementptr inbounds nuw %struct.asn1_string_st, ptr %8, i32 0, i32 2
  store ptr %21, ptr %22, align 8, !tbaa !95
  %23 = getelementptr inbounds nuw %struct.asn1_string_st, ptr %8, i32 0, i32 0
  store i32 32, ptr %23, align 8, !tbaa !97
  %24 = getelementptr inbounds nuw %struct.asn1_string_st, ptr %8, i32 0, i32 3
  store i64 0, ptr %24, align 8, !tbaa !98
  %25 = load ptr, ptr %5, align 8, !tbaa !93
  %26 = call i32 @i2d_ASN1_OCTET_STRING(ptr noundef %8, ptr noundef %25)
  store i32 %26, ptr %9, align 4, !tbaa !27
  %27 = load i32, ptr %9, align 4, !tbaa !27
  %28 = icmp slt i32 %27, 0
  br i1 %28, label %29, label %30

29:                                               ; preds = %15
  call void @ERR_new()
  call void @ERR_set_debug(ptr noundef @.str.2, i32 noundef 1701, ptr noundef @__func__.xorx_pki_priv_to_der)
  call void (i32, i32, ptr, ...) @ERR_set_error(i32 noundef 128, i32 noundef 786688, ptr noundef null)
  store i32 0, ptr %9, align 4, !tbaa !27
  br label %30

30:                                               ; preds = %29, %15
  %31 = load ptr, ptr %7, align 8, !tbaa !30
  call void @CRYPTO_secure_clear_free(ptr noundef %31, i64 noundef 32, ptr noundef @.str.2, i32 noundef 1705)
  %32 = load i32, ptr %9, align 4, !tbaa !27
  store i32 %32, ptr %3, align 4
  store i32 1, ptr %10, align 4
  br label %33

33:                                               ; preds = %30, %14
  call void @llvm.lifetime.end.p0(i64 4, ptr %9) #8
  call void @llvm.lifetime.end.p0(i64 24, ptr %8) #8
  call void @llvm.lifetime.end.p0(i64 8, ptr %7) #8
  call void @llvm.lifetime.end.p0(i64 8, ptr %6) #8
  %34 = load i32, ptr %3, align 4
  ret i32 %34
}