; Function Attrs: nounwind uwtable
define internal range(i32 0, -2147483648) i32 @xorx_pki_priv_to_der(ptr noundef readonly captures(address_is_null) %0, ptr noundef %1) #0 {
  %3 = alloca %struct.asn1_string_st, align 8
  call void @llvm.lifetime.start.p0(i64 24, ptr nonnull %3) #16
  %4 = icmp eq ptr %0, null
  br i1 %4, label %5, label %6

5:                                                ; preds = %2
  tail call void @ERR_new() #16
  tail call void @ERR_set_debug(ptr noundef nonnull @.str.2, i32 noundef 1688, ptr noundef nonnull @__func__.xorx_pki_priv_to_der) #16
  tail call void (i32, i32, ptr, ...) @ERR_set_error(i32 noundef 128, i32 noundef 786690, ptr noundef null) #16
  br label %14

6:                                                ; preds = %2
  %7 = tail call noalias ptr @CRYPTO_secure_malloc(i64 noundef 32, ptr noundef nonnull @.str.2, i32 noundef 1692) #16
  tail call void @llvm.memcpy.p0.p0.i64(ptr noundef nonnull align 1 dereferenceable(32) %7, ptr noundef nonnull align 8 dereferenceable(32) %0, i64 32, i1 false)
  %8 = getelementptr inbounds nuw i8, ptr %3, i64 8
  store ptr %7, ptr %8, align 8, !tbaa !69
  store i32 32, ptr %3, align 8, !tbaa !71
  %9 = getelementptr inbounds nuw i8, ptr %3, i64 16
  store i64 0, ptr %9, align 8, !tbaa !72
  %10 = call i32 @i2d_ASN1_OCTET_STRING(ptr noundef nonnull %3, ptr noundef %1) #16
  %11 = icmp slt i32 %10, 0
  br i1 %11, label %12, label %13

12:                                               ; preds = %6
  call void @ERR_new() #16
  call void @ERR_set_debug(ptr noundef nonnull @.str.2, i32 noundef 1701, ptr noundef nonnull @__func__.xorx_pki_priv_to_der) #16
  call void (i32, i32, ptr, ...) @ERR_set_error(i32 noundef 128, i32 noundef 786688, ptr noundef null) #16
  br label %13

13:                                               ; preds = %12, %6
  %.0 = phi i32 [ 0, %12 ], [ %10, %6 ]
  call void @CRYPTO_secure_clear_free(ptr noundef nonnull %7, i64 noundef 32, ptr noundef nonnull @.str.2, i32 noundef 1705) #16
  br label %14

14:                                               ; preds = %13, %5
  %.09 = phi i32 [ 0, %5 ], [ %.0, %13 ]
  call void @llvm.lifetime.end.p0(i64 24, ptr nonnull %3) #16
  ret i32 %.09
}